; Function Attrs: mustprogress nofree norecurse nosync nounwind willreturn memory(read, inaccessiblemem: none) uwtable
define internal noundef range(i32 -1, 2) i32 @_ZN11duckdb_zstdL17COVER_strict_cmp8EPKvS1_(ptr noundef readonly captures(address) %0, ptr noundef readonly captures(address) %1) #17 {
  %3 = load ptr, ptr @_ZN11duckdb_zstdL10g_coverCtxE, align 8, !tbaa !42
  %4 = getelementptr inbounds nuw i8, ptr %3, i64 80
  %5 = load i32, ptr %4, align 8, !tbaa !39
  %6 = icmp eq i32 %5, 8
  %7 = shl i32 %5, 3
  %8 = zext nneg i32 %7 to i64
  %notmask.i = shl nsw i64 -1, %8
  %9 = xor i64 %notmask.i, -1
  %10 = select i1 %6, i64 -1, i64 %9
  %11 = load ptr, ptr %3, align 8, !tbaa !34
  %12 = load i32, ptr %0, align 4, !tbaa !18
  %13 = zext i32 %12 to i64
  %14 = getelementptr inbounds nuw i8, ptr %11, i64 %13
  %.val.i = load i64, ptr %14, align 1, !tbaa !3
  %15 = and i64 %10, %.val.i
  %16 = load i32, ptr %1, align 4, !tbaa !18
  %17 = zext i32 %16 to i64
  %18 = getelementptr inbounds nuw i8, ptr %11, i64 %17
  %.val15.i = load i64, ptr %18, align 1, !tbaa !3
  %19 = and i64 %.val15.i, %10
  %.0.i = tail call noundef range(i32 -1, 2) i32 @llvm.ucmp.i32.i64(i64 %15, i64 %19)
  %20 = icmp eq i64 %15, %19
  %21 = icmp ult ptr %0, %1
  %22 = select i1 %21, i32 -1, i32 1
  %.0 = select i1 %20, i32 %22, i32 %.0.i
  ret i32 %.0
}